TN:
SF:/home/shecannotsee/desktop/all_code/sheBase64/src/she_base64.cpp
FN:23,_ZN10she_base6411pos_of_charERKc
FN:33,_ZN10she_base646encodeENSt7__cxx1112basic_stringIcSt11char_traitsIcESaIcEEENS_9BASE_TYPEE
FN:85,_ZN10she_base6420check_base64_successERKNSt7__cxx1112basic_stringIcSt11char_traitsIcESaIcEEE
FN:103,_ZN10she_base646decodeERKNSt7__cxx1112basic_stringIcSt11char_traitsIcESaIcEEEb
FNDA:14,_ZN10she_base6420check_base64_successERKNSt7__cxx1112basic_stringIcSt11char_traitsIcESaIcEEE
FNDA:462,_ZN10she_base6411pos_of_charERKc
FNDA:14,_ZN10she_base646decodeERKNSt7__cxx1112basic_stringIcSt11char_traitsIcESaIcEEEb
FNDA:14,_ZN10she_base646encodeENSt7__cxx1112basic_stringIcSt11char_traitsIcESaIcEEENS_9BASE_TYPEE
FNF:4
FNH:4
DA:23,462
DA:24,462
DA:25,206
DA:26,52
DA:27,10
DA:28,10
DA:30,0
DA:33,14
DA:34,14
DA:35,14
DA:36,14
DA:37,4
DA:38,4
DA:39,10
DA:40,4
DA:44,14
DA:45,14
DA:47,0
DA:48,0
DA:51,72
DA:53,72
DA:54,72
DA:56,58
DA:57,58
DA:59,58
DA:60,58
DA:61,58
DA:62,58
DA:64,58
DA:65,58
DA:66,58
DA:67,58
DA:69,58
DA:70,58
DA:71,58
DA:72,14
DA:75,14
DA:76,4
DA:77,4
DA:78,10
DA:79,4
DA:82,14
DA:85,14
DA:86,14
DA:89,204
DA:90,192
DA:91,192
DA:92,184
DA:95,0
DA:96,0
DA:97,0
DA:100,12
DA:103,14
DA:104,14
DA:105,14
DA:106,2
DA:109,12
DA:111,20
DA:112,18
DA:116,12
DA:118,26
DA:119,12
DA:120,12
DA:121,196
DA:122,190
DA:124,184
DA:125,48
DA:126,48
DA:127,136
DA:128,48
DA:129,48
DA:130,48
DA:131,48
DA:132,48
DA:133,88
DA:134,46
DA:135,46
DA:136,46
DA:137,46
DA:138,46
DA:139,42
DA:140,42
DA:141,184
DA:145,12
DA:147,24
LF:85
LH:79
end_of_record
TN:
SF:/home/shecannotsee/desktop/all_code/sheBase64/test/m1_she_base64_test.h
FN:15,_ZN18m1_she_base64_test31Base64Test_encoding_common_TestD0Ev
FN:15,_ZN18m1_she_base64_test31Base64Test_encoding_common_TestD2Ev
FN:15,_ZN18m1_she_base64_test31Base64Test_encoding_common_Test8TestBodyEv
FN:22,_ZN18m1_she_base64_test32Base64Test_encoding_special_TestD0Ev
FN:22,_ZN18m1_she_base64_test32Base64Test_encoding_special_TestD2Ev
FN:22,_ZN18m1_she_base64_test32Base64Test_encoding_special_Test8TestBodyEv
FN:40,_ZN18m1_she_base64_test31Base64Test_decoding_common_TestD0Ev
FN:40,_ZN18m1_she_base64_test31Base64Test_decoding_common_TestD2Ev
FN:40,_ZN18m1_she_base64_test31Base64Test_decoding_common_Test8TestBodyEv
FN:47,_ZN18m1_she_base64_test32Base64Test_decoding_special_TestD0Ev
FN:47,_ZN18m1_she_base64_test32Base64Test_decoding_special_Test8TestBodyEv
FN:47,_ZN18m1_she_base64_test32Base64Test_decoding_special_TestD2Ev
FN:57,_ZN18m1_she_base64_test30Base64Test_decoding_error_Test8TestBodyEv
FN:57,_ZN18m1_she_base64_test30Base64Test_decoding_error_TestD0Ev
FN:57,_ZN18m1_she_base64_test30Base64Test_decoding_error_TestD2Ev
FN:61,_ZN18m1_she_base64_test4mainEiPPc
FNDA:2,_ZN18m1_she_base64_test32Base64Test_encoding_special_TestD0Ev
FNDA:2,_ZN18m1_she_base64_test31Base64Test_encoding_common_TestD0Ev
FNDA:2,_ZN18m1_she_base64_test31Base64Test_decoding_common_TestD0Ev
FNDA:2,_ZN18m1_she_base64_test32Base64Test_decoding_special_Test8TestBodyEv
FNDA:2,_ZN18m1_she_base64_test32Base64Test_decoding_special_TestD0Ev
FNDA:0,_ZN18m1_she_base64_test31Base64Test_encoding_common_TestD2Ev
FNDA:0,_ZN18m1_she_base64_test31Base64Test_decoding_common_TestD2Ev
FNDA:2,_ZN18m1_she_base64_test30Base64Test_decoding_error_Test8TestBodyEv
FNDA:0,_ZN18m1_she_base64_test32Base64Test_encoding_special_TestD2Ev
FNDA:2,_ZN18m1_she_base64_test30Base64Test_decoding_error_TestD0Ev
FNDA:0,_ZN18m1_she_base64_test32Base64Test_decoding_special_TestD2Ev
FNDA:2,_ZN18m1_she_base64_test31Base64Test_encoding_common_Test8TestBodyEv
FNDA:2,_ZN18m1_she_base64_test31Base64Test_decoding_common_Test8TestBodyEv
FNDA:0,_ZN18m1_she_base64_test30Base64Test_decoding_error_TestD2Ev
FNDA:1,_ZN18m1_she_base64_test4mainEiPPc
FNDA:2,_ZN18m1_she_base64_test32Base64Test_encoding_special_Test8TestBodyEv
FNF:16
FNH:11
DA:15,6
DA:17,6
DA:18,4
DA:19,4
DA:20,8
DA:21,2
DA:22,6
DA:23,2
DA:24,2
DA:25,2
DA:26,2
DA:27,2
DA:28,2
DA:29,6
DA:30,4
DA:31,2
DA:32,2
DA:33,2
DA:34,2
DA:36,8
DA:37,2
DA:40,6
DA:42,6
DA:43,4
DA:44,4
DA:45,8
DA:46,2
DA:47,6
DA:48,2
DA:49,2
DA:50,2
DA:51,2
DA:52,2
DA:53,2
DA:54,6
DA:55,6
DA:56,2
DA:57,6
DA:58,6
DA:59,2
DA:61,1
DA:62,1
DA:63,1
LF:43
LH:43
end_of_record
TN:
SF:/home/shecannotsee/desktop/all_code/sheBase64/test/m2_compare_test.h
FN:15,_ZN15m2_compare_test40base64_compare_test_encoding_common_TestD2Ev
FN:15,_ZN15m2_compare_test40base64_compare_test_encoding_common_TestD0Ev
FN:15,_ZN15m2_compare_test40base64_compare_test_encoding_common_Test8TestBodyEv
FN:20,_ZN15m2_compare_test4mainEiPPc
FNDA:2,_ZN15m2_compare_test40base64_compare_test_encoding_common_Test8TestBodyEv
FNDA:1,_ZN15m2_compare_test4mainEiPPc
FNDA:0,_ZN15m2_compare_test40base64_compare_test_encoding_common_TestD2Ev
FNDA:2,_ZN15m2_compare_test40base64_compare_test_encoding_common_TestD0Ev
FNF:4
FNH:3
DA:15,6
DA:17,6
DA:18,2
DA:20,1
DA:21,1
DA:22,1
LF:6
LH:6
end_of_record
TN:
SF:/home/shecannotsee/desktop/all_code/sheBase64/test/main.cpp
FN:9,main
FNDA:1,main
FNF:1
FNH:1
DA:9,1
DA:10,1
DA:12,1
DA:13,1
DA:15,1
DA:16,1
LF:6
LH:6
end_of_record
